(lp0
(S'cppflags'
p1
ccopy_reg
_reconstructor
p2
(cino.utils
SpaceList
p3
c__builtin__
list
p4
(lp5
S'-mmcu=atmega328p'
p6
aS'-DF_CPU=16000000L'
p7
aS'-DARDUINO=105'
p8
aS'-I/usr/share/arduino/hardware/arduino/cores/arduino'
p9
aS'-ffunction-sections'
p10
aS'-fdata-sections'
p11
aS'-g'
p12
aS'-Os'
p13
aS'-w'
p14
aS'-I/usr/share/arduino/hardware/arduino/variants/standard'
p15
aS'-Ilib/Adafruit_Trellis'
p16
aS'-I/usr/share/arduino/libraries/Wire'
p17
aS'-I/usr/share/arduino/libraries/Wire/utility'
p18
aS'-I/usr/share/arduino/hardware/arduino/cores/arduino'
p19
aS'-I/usr/share/arduino/hardware/arduino/cores/arduino/avr-libc'
p20
atp21
Rp22
tp23
a(S'cxx'
p24
S'/usr/share/arduino/hardware/tools/avr/bin/avr-g++'
p25
tp26
a(S'build_dir'
p27
S'.build/uno'
p28
tp29
a(S'avrdude'
p30
S'/usr/share/arduino/hardware/tools/avrdude'
p31
tp32
a(S'ar'
p33
S'/usr/share/arduino/hardware/tools/avr/bin/avr-ar'
p34
tp35
a(S'names'
p36
(dp37
S'cpp'
p38
S'%s.cpp'
p39
sS'obj'
p40
S'%s.o'
p41
sS'lib'
p42
S'lib%s.a'
p43
sS'deps'
p44
S'%s.d'
p45
stp46
a(S'ldflags'
p47
g2
(g3
g4
(lp48
g6
aS'-Wl,-Os'
p49
aS'-Wl,--gc-sections'
p50
atp51
Rp52
tp53
a(S'arduino_lib_version'
p54
g2
(cino.environment
Version
p55
c__builtin__
tuple
p56
(I1
I0
I5
tp57
tp58
Rp59
tp60
a(S'objcopy'
p61
S'/usr/share/arduino/hardware/tools/avr/bin/avr-objcopy'
p62
tp63
a(S'board_models'
p64
cino.environment
BoardModels
p65
((lp66
(lp67
S'uno'
p68
a(dp69
S'bootloader'
p70
(dp71
S'extended_fuses'
p72
S'0xfd'
p73
sS'high_fuses'
p74
S'0xde'
p75
sS'low_fuses'
p76
S'0xff'
p77
sS'lock_bits'
p78
S'0xcf'
p79
sS'file'
p80
S'optiboot_atmega328.hex'
p81
sS'path'
p82
S'optiboot'
p83
sS'unlock_bits'
p84
S'0xff'
p85
ssS'upload'
p86
(dp87
S'protocol'
p88
S'arduino'
p89
sS'maximum_size'
p90
S'32256'
p91
sS'speed'
p92
S'115200'
p93
ssS'build'
p94
(dp95
S'core'
p96
S'arduino'
p97
sS'mcu'
p98
S'atmega328p'
p99
sS'f_cpu'
p100
S'16000000L'
p101
sS'variant'
p102
S'standard'
p103
ssS'name'
p104
S'Arduino Uno'
p105
saa(lp106
S'atmega328'
p107
a(dp108
S'bootloader'
p109
(dp110
S'extended_fuses'
p111
S'0xfd'
p112
sS'high_fuses'
p113
S'0xDA'
p114
sS'low_fuses'
p115
S'0xFF'
p116
sS'lock_bits'
p117
S'0xcf'
p118
sS'file'
p119
S'ATmegaBOOT_168_atmega328.hex'
p120
sS'path'
p121
S'atmega'
p122
sS'unlock_bits'
p123
S'0xff'
p124
ssS'upload'
p125
(dp126
S'protocol'
p127
S'arduino'
p128
sS'maximum_size'
p129
S'30720'
p130
sS'speed'
p131
S'57600'
p132
ssS'build'
p133
(dp134
S'core'
p135
S'arduino'
p136
sS'mcu'
p137
S'atmega328p'
p138
sS'f_cpu'
p139
S'16000000L'
p140
sS'variant'
p141
S'standard'
p142
ssS'name'
p143
S'Arduino Duemilanove w/ ATmega328'
p144
saa(lp145
S'diecimila'
p146
a(dp147
S'bootloader'
p148
(dp149
S'extended_fuses'
p150
S'0xf8'
p151
sS'high_fuses'
p152
S'0xdd'
p153
sS'low_fuses'
p154
S'0xff'
p155
sS'lock_bits'
p156
S'0xcf'
p157
sS'file'
p158
S'ATmegaBOOT_168_diecimila.hex'
p159
sS'path'
p160
S'atmega'
p161
sS'unlock_bits'
p162
S'0xff'
p163
ssS'upload'
p164
(dp165
S'protocol'
p166
S'arduino'
p167
sS'maximum_size'
p168
S'14336'
p169
sS'speed'
p170
S'19200'
p171
ssS'build'
p172
(dp173
S'core'
p174
S'arduino'
p175
sS'mcu'
p176
S'atmega168'
p177
sS'f_cpu'
p178
S'16000000L'
p179
sS'variant'
p180
S'standard'
p181
ssS'name'
p182
S'Arduino Diecimila or Duemilanove w/ ATmega168'
p183
saa(lp184
S'nano328'
p185
a(dp186
S'bootloader'
p187
(dp188
S'extended_fuses'
p189
S'0xfd'
p190
sS'high_fuses'
p191
S'0xDA'
p192
sS'low_fuses'
p193
S'0xFF'
p194
sS'lock_bits'
p195
S'0xcf'
p196
sS'file'
p197
S'ATmegaBOOT_168_atmega328.hex'
p198
sS'path'
p199
S'atmega'
p200
sS'unlock_bits'
p201
S'0xff'
p202
ssS'upload'
p203
(dp204
S'protocol'
p205
S'arduino'
p206
sS'maximum_size'
p207
S'30720'
p208
sS'speed'
p209
S'57600'
p210
ssS'build'
p211
(dp212
S'core'
p213
S'arduino'
p214
sS'mcu'
p215
S'atmega328p'
p216
sS'f_cpu'
p217
S'16000000L'
p218
sS'variant'
p219
S'eightanaloginputs'
p220
ssS'name'
p221
S'Arduino Nano w/ ATmega328'
p222
saa(lp223
S'nano'
p224
a(dp225
S'bootloader'
p226
(dp227
S'extended_fuses'
p228
S'0xf8'
p229
sS'high_fuses'
p230
S'0xdd'
p231
sS'low_fuses'
p232
S'0xff'
p233
sS'lock_bits'
p234
S'0xcf'
p235
sS'file'
p236
S'ATmegaBOOT_168_diecimila.hex'
p237
sS'path'
p238
S'atmega'
p239
sS'unlock_bits'
p240
S'0xff'
p241
ssS'upload'
p242
(dp243
S'protocol'
p244
S'arduino'
p245
sS'maximum_size'
p246
S'14336'
p247
sS'speed'
p248
S'19200'
p249
ssS'build'
p250
(dp251
S'core'
p252
S'arduino'
p253
sS'mcu'
p254
S'atmega168'
p255
sS'f_cpu'
p256
S'16000000L'
p257
sS'variant'
p258
S'eightanaloginputs'
p259
ssS'name'
p260
S'Arduino Nano w/ ATmega168'
p261
saa(lp262
S'mega2560'
p263
a(dp264
S'bootloader'
p265
(dp266
S'extended_fuses'
p267
S'0xFD'
p268
sS'high_fuses'
p269
S'0xD8'
p270
sS'low_fuses'
p271
S'0xFF'
p272
sS'lock_bits'
p273
S'0xcf'
p274
sS'file'
p275
S'stk500boot_v2_mega2560.hex'
p276
sS'path'
p277
S'stk500v2'
p278
sS'unlock_bits'
p279
S'0xff'
p280
ssS'upload'
p281
(dp282
S'protocol'
p283
S'wiring'
p284
sS'maximum_size'
p285
S'258048'
p286
sS'speed'
p287
S'115200'
p288
ssS'build'
p289
(dp290
S'core'
p291
S'arduino'
p292
sS'mcu'
p293
S'atmega2560'
p294
sS'f_cpu'
p295
S'16000000L'
p296
sS'variant'
p297
S'mega'
p298
ssS'name'
p299
S'Arduino Mega 2560 or Mega ADK'
p300
saa(lp301
S'mega'
p302
a(dp303
S'bootloader'
p304
(dp305
S'extended_fuses'
p306
S'0xF5'
p307
sS'high_fuses'
p308
S'0xDA'
p309
sS'low_fuses'
p310
S'0xFF'
p311
sS'lock_bits'
p312
S'0xcf'
p313
sS'file'
p314
S'ATmegaBOOT_168_atmega1280.hex'
p315
sS'path'
p316
S'atmega'
p317
sS'unlock_bits'
p318
S'0xff'
p319
ssS'upload'
p320
(dp321
S'protocol'
p322
S'arduino'
p323
sS'maximum_size'
p324
S'126976'
p325
sS'speed'
p326
S'57600'
p327
ssS'build'
p328
(dp329
S'core'
p330
S'arduino'
p331
sS'mcu'
p332
S'atmega1280'
p333
sS'f_cpu'
p334
S'16000000L'
p335
sS'variant'
p336
S'mega'
p337
ssS'name'
p338
S'Arduino Mega (ATmega1280)'
p339
saa(lp340
S'leonardo'
p341
a(dp342
S'bootloader'
p343
(dp344
S'extended_fuses'
p345
S'0xcb'
p346
sS'high_fuses'
p347
S'0xd8'
p348
sS'low_fuses'
p349
S'0xff'
p350
sS'lock_bits'
p351
S'0xef'
p352
sS'file'
p353
S'Caterina-Leonardo.hex'
p354
sS'path'
p355
S'caterina'
p356
sS'unlock_bits'
p357
S'0xff'
p358
ssS'upload'
p359
(dp360
S'protocol'
p361
S'avr109'
p362
sS'maximum_size'
p363
S'28672'
p364
sS'speed'
p365
S'57600'
p366
sS'disable_flushing'
p367
S'true'
p368
ssS'build'
p369
(dp370
S'core'
p371
S'arduino'
p372
sS'f_cpu'
p373
S'16000000L'
p374
sS'vid'
p375
S'0x2341'
p376
sS'pid'
p377
S'0x8036'
p378
sS'variant'
p379
S'leonardo'
p380
sS'mcu'
p381
S'atmega32u4'
p382
ssS'name'
p383
S'Arduino Leonardo'
p384
saa(lp385
S'esplora'
p386
a(dp387
S'bootloader'
p388
(dp389
S'extended_fuses'
p390
S'0xcb'
p391
sS'high_fuses'
p392
S'0xd8'
p393
sS'low_fuses'
p394
S'0xff'
p395
sS'lock_bits'
p396
S'0xef'
p397
sS'file'
p398
S'Caterina-Esplora.hex'
p399
sS'path'
p400
S'caterina'
p401
sS'unlock_bits'
p402
S'0xff'
p403
ssS'upload'
p404
(dp405
S'protocol'
p406
S'avr109'
p407
sS'maximum_size'
p408
S'28672'
p409
sS'speed'
p410
S'57600'
p411
sS'disable_flushing'
p412
S'true'
p413
ssS'build'
p414
(dp415
S'core'
p416
S'arduino'
p417
sS'f_cpu'
p418
S'16000000L'
p419
sS'vid'
p420
S'0x2341'
p421
sS'pid'
p422
S'0x803C'
p423
sS'variant'
p424
S'leonardo'
p425
sS'mcu'
p426
S'atmega32u4'
p427
ssS'name'
p428
S'Arduino Esplora'
p429
saa(lp430
S'micro'
p431
a(dp432
S'bootloader'
p433
(dp434
S'extended_fuses'
p435
S'0xcb'
p436
sS'high_fuses'
p437
S'0xd8'
p438
sS'low_fuses'
p439
S'0xff'
p440
sS'lock_bits'
p441
S'0xef'
p442
sS'file'
p443
S'Caterina-Micro.hex'
p444
sS'path'
p445
S'caterina'
p446
sS'unlock_bits'
p447
S'0xff'
p448
ssS'upload'
p449
(dp450
S'protocol'
p451
S'avr109'
p452
sS'maximum_size'
p453
S'28672'
p454
sS'speed'
p455
S'57600'
p456
sS'disable_flushing'
p457
S'true'
p458
ssS'build'
p459
(dp460
S'core'
p461
S'arduino'
p462
sS'f_cpu'
p463
S'16000000L'
p464
sS'vid'
p465
S'0x2341'
p466
sS'pid'
p467
S'0x8037'
p468
sS'variant'
p469
S'micro'
p470
sS'mcu'
p471
S'atmega32u4'
p472
ssS'name'
p473
S'Arduino Micro'
p474
saa(lp475
S'mini328'
p476
a(dp477
S'bootloader'
p478
(dp479
S'extended_fuses'
p480
S'0xfd'
p481
sS'high_fuses'
p482
S'0xd8'
p483
sS'low_fuses'
p484
S'0xff'
p485
sS'lock_bits'
p486
S'0xcf'
p487
sS'file'
p488
S'optiboot_atmega328-Mini.hex'
p489
sS'path'
p490
S'optiboot'
p491
sS'unlock_bits'
p492
S'0xff'
p493
ssS'upload'
p494
(dp495
S'protocol'
p496
S'arduino'
p497
sS'maximum_size'
p498
S'28672'
p499
sS'speed'
p500
S'115200'
p501
ssS'build'
p502
(dp503
S'core'
p504
S'arduino'
p505
sS'mcu'
p506
S'atmega328p'
p507
sS'f_cpu'
p508
S'16000000L'
p509
sS'variant'
p510
S'eightanaloginputs'
p511
ssS'name'
p512
S'Arduino Mini w/ ATmega328'
p513
saa(lp514
S'mini'
p515
a(dp516
S'bootloader'
p517
(dp518
S'extended_fuses'
p519
S'0xf8'
p520
sS'high_fuses'
p521
S'0xdd'
p522
sS'low_fuses'
p523
S'0xff'
p524
sS'lock_bits'
p525
S'0xcf'
p526
sS'file'
p527
S'ATmegaBOOT_168_ng.hex'
p528
sS'path'
p529
S'atmega'
p530
sS'unlock_bits'
p531
S'0xff'
p532
ssS'upload'
p533
(dp534
S'protocol'
p535
S'arduino'
p536
sS'maximum_size'
p537
S'14336'
p538
sS'speed'
p539
S'19200'
p540
ssS'build'
p541
(dp542
S'core'
p543
S'arduino'
p544
sS'mcu'
p545
S'atmega168'
p546
sS'f_cpu'
p547
S'16000000L'
p548
sS'variant'
p549
S'eightanaloginputs'
p550
ssS'name'
p551
S'Arduino Mini w/ ATmega168'
p552
saa(lp553
S'ethernet'
p554
a(dp555
S'bootloader'
p556
(dp557
S'extended_fuses'
p558
S'0xfd'
p559
sS'high_fuses'
p560
S'0xde'
p561
sS'low_fuses'
p562
S'0xff'
p563
sS'lock_bits'
p564
S'0xcf'
p565
sS'file'
p566
S'optiboot_atmega328.hex'
p567
sS'path'
p568
S'optiboot'
p569
sS'unlock_bits'
p570
S'0xff'
p571
ssS'upload'
p572
(dp573
S'protocol'
p574
S'arduino'
p575
sS'maximum_size'
p576
S'32256'
p577
sS'speed'
p578
S'115200'
p579
ssS'build'
p580
(dp581
S'variant'
p582
S'standard'
p583
sS'mcu'
p584
S'atmega328p'
p585
sS'f_cpu'
p586
S'16000000L'
p587
sS'core'
p588
S'arduino'
p589
ssS'name'
p590
S'Arduino Ethernet'
p591
saa(lp592
S'fio'
p593
a(dp594
S'bootloader'
p595
(dp596
S'extended_fuses'
p597
S'0xfd'
p598
sS'high_fuses'
p599
S'0xDA'
p600
sS'low_fuses'
p601
S'0xFF'
p602
sS'lock_bits'
p603
S'0xcf'
p604
sS'file'
p605
S'ATmegaBOOT_168_atmega328_pro_8MHz.hex'
p606
sS'path'
p607
S'arduino:atmega'
p608
sS'unlock_bits'
p609
S'0xff'
p610
ssS'upload'
p611
(dp612
S'protocol'
p613
S'arduino'
p614
sS'maximum_size'
p615
S'30720'
p616
sS'speed'
p617
S'57600'
p618
ssS'build'
p619
(dp620
S'core'
p621
S'arduino'
p622
sS'mcu'
p623
S'atmega328p'
p624
sS'f_cpu'
p625
S'8000000L'
p626
sS'variant'
p627
S'eightanaloginputs'
p628
ssS'name'
p629
S'Arduino Fio'
p630
saa(lp631
S'bt328'
p632
a(dp633
S'bootloader'
p634
(dp635
S'extended_fuses'
p636
S'0xfd'
p637
sS'high_fuses'
p638
S'0xd8'
p639
sS'low_fuses'
p640
S'0xff'
p641
sS'lock_bits'
p642
S'0xcf'
p643
sS'file'
p644
S'ATmegaBOOT_168_atmega328_bt.hex'
p645
sS'path'
p646
S'bt'
p647
sS'unlock_bits'
p648
S'0xff'
p649
ssS'upload'
p650
(dp651
S'protocol'
p652
S'arduino'
p653
sS'maximum_size'
p654
S'28672'
p655
sS'speed'
p656
S'19200'
p657
sS'disable_flushing'
p658
S'true'
p659
ssS'build'
p660
(dp661
S'core'
p662
S'arduino'
p663
sS'mcu'
p664
S'atmega328p'
p665
sS'f_cpu'
p666
S'16000000L'
p667
sS'variant'
p668
S'eightanaloginputs'
p669
ssS'name'
p670
S'Arduino BT w/ ATmega328'
p671
saa(lp672
S'bt'
p673
a(dp674
S'bootloader'
p675
(dp676
S'extended_fuses'
p677
S'0xf8'
p678
sS'high_fuses'
p679
S'0xdd'
p680
sS'low_fuses'
p681
S'0xff'
p682
sS'lock_bits'
p683
S'0xcf'
p684
sS'file'
p685
S'ATmegaBOOT_168.hex'
p686
sS'path'
p687
S'bt'
p688
sS'unlock_bits'
p689
S'0xff'
p690
ssS'upload'
p691
(dp692
S'protocol'
p693
S'arduino'
p694
sS'maximum_size'
p695
S'14336'
p696
sS'speed'
p697
S'19200'
p698
sS'disable_flushing'
p699
S'true'
p700
ssS'build'
p701
(dp702
S'core'
p703
S'arduino'
p704
sS'mcu'
p705
S'atmega168'
p706
sS'f_cpu'
p707
S'16000000L'
p708
sS'variant'
p709
S'eightanaloginputs'
p710
ssS'name'
p711
S'Arduino BT w/ ATmega168'
p712
saa(lp713
S'LilyPadUSB'
p714
a(dp715
S'bootloader'
p716
(dp717
S'extended_fuses'
p718
S'0xce'
p719
sS'high_fuses'
p720
S'0xd8'
p721
sS'low_fuses'
p722
S'0xff'
p723
sS'lock_bits'
p724
S'0xef'
p725
sS'file'
p726
S'Caterina-LilyPadUSB.hex'
p727
sS'path'
p728
S'caterina-LilyPadUSB'
p729
sS'unlock_bits'
p730
S'0xff'
p731
ssS'upload'
p732
(dp733
S'protocol'
p734
S'avr109'
p735
sS'maximum_size'
p736
S'28672'
p737
sS'speed'
p738
S'57600'
p739
sS'disable_flushing'
p740
S'true'
p741
ssS'build'
p742
(dp743
S'core'
p744
S'arduino'
p745
sS'f_cpu'
p746
S'8000000L'
p747
sS'vid'
p748
S'0x1B4F'
p749
sS'pid'
p750
S'0x9208'
p751
sS'variant'
p752
S'leonardo'
p753
sS'mcu'
p754
S'atmega32u4'
p755
ssS'name'
p756
S'LilyPad Arduino USB'
p757
saa(lp758
S'lilypad328'
p759
a(dp760
S'bootloader'
p761
(dp762
S'extended_fuses'
p763
S'0xfd'
p764
sS'high_fuses'
p765
S'0xDA'
p766
sS'low_fuses'
p767
S'0xFF'
p768
sS'lock_bits'
p769
S'0xcf'
p770
sS'file'
p771
S'ATmegaBOOT_168_atmega328_pro_8MHz.hex'
p772
sS'path'
p773
S'atmega'
p774
sS'unlock_bits'
p775
S'0xff'
p776
ssS'upload'
p777
(dp778
S'protocol'
p779
S'arduino'
p780
sS'maximum_size'
p781
S'30720'
p782
sS'speed'
p783
S'57600'
p784
ssS'build'
p785
(dp786
S'core'
p787
S'arduino'
p788
sS'mcu'
p789
S'atmega328p'
p790
sS'f_cpu'
p791
S'8000000L'
p792
sS'variant'
p793
S'standard'
p794
ssS'name'
p795
S'LilyPad Arduino w/ ATmega328'
p796
saa(lp797
S'lilypad'
p798
a(dp799
S'bootloader'
p800
(dp801
S'extended_fuses'
p802
S'0xf8'
p803
sS'high_fuses'
p804
S'0xdd'
p805
sS'low_fuses'
p806
S'0xe2'
p807
sS'lock_bits'
p808
S'0xcf'
p809
sS'file'
p810
S'LilyPadBOOT_168.hex'
p811
sS'path'
p812
S'lilypad'
p813
sS'unlock_bits'
p814
S'0xff'
p815
ssS'upload'
p816
(dp817
S'protocol'
p818
S'arduino'
p819
sS'maximum_size'
p820
S'14336'
p821
sS'speed'
p822
S'19200'
p823
ssS'build'
p824
(dp825
S'core'
p826
S'arduino'
p827
sS'mcu'
p828
S'atmega168'
p829
sS'f_cpu'
p830
S'8000000L'
p831
sS'variant'
p832
S'standard'
p833
ssS'name'
p834
S'LilyPad Arduino w/ ATmega168'
p835
saa(lp836
S'pro5v328'
p837
a(dp838
S'bootloader'
p839
(dp840
S'extended_fuses'
p841
S'0xfd'
p842
sS'high_fuses'
p843
S'0xDA'
p844
sS'low_fuses'
p845
S'0xFF'
p846
sS'lock_bits'
p847
S'0xcf'
p848
sS'file'
p849
S'ATmegaBOOT_168_atmega328.hex'
p850
sS'path'
p851
S'atmega'
p852
sS'unlock_bits'
p853
S'0xff'
p854
ssS'upload'
p855
(dp856
S'protocol'
p857
S'arduino'
p858
sS'maximum_size'
p859
S'30720'
p860
sS'speed'
p861
S'57600'
p862
ssS'build'
p863
(dp864
S'core'
p865
S'arduino'
p866
sS'mcu'
p867
S'atmega328p'
p868
sS'f_cpu'
p869
S'16000000L'
p870
sS'variant'
p871
S'standard'
p872
ssS'name'
p873
S'Arduino Pro or Pro Mini (5V, 16 MHz) w/ ATmega328'
p874
saa(lp875
S'pro5v'
p876
a(dp877
S'bootloader'
p878
(dp879
S'extended_fuses'
p880
S'0xf8'
p881
sS'high_fuses'
p882
S'0xdd'
p883
sS'low_fuses'
p884
S'0xff'
p885
sS'lock_bits'
p886
S'0xcf'
p887
sS'file'
p888
S'ATmegaBOOT_168_diecimila.hex'
p889
sS'path'
p890
S'atmega'
p891
sS'unlock_bits'
p892
S'0xff'
p893
ssS'upload'
p894
(dp895
S'protocol'
p896
S'arduino'
p897
sS'maximum_size'
p898
S'14336'
p899
sS'speed'
p900
S'19200'
p901
ssS'build'
p902
(dp903
S'core'
p904
S'arduino'
p905
sS'mcu'
p906
S'atmega168'
p907
sS'f_cpu'
p908
S'16000000L'
p909
sS'variant'
p910
S'standard'
p911
ssS'name'
p912
S'Arduino Pro or Pro Mini (5V, 16 MHz) w/ ATmega168'
p913
saa(lp914
S'pro328'
p915
a(dp916
S'bootloader'
p917
(dp918
S'extended_fuses'
p919
S'0xfd'
p920
sS'high_fuses'
p921
S'0xDA'
p922
sS'low_fuses'
p923
S'0xFF'
p924
sS'lock_bits'
p925
S'0xcf'
p926
sS'file'
p927
S'ATmegaBOOT_168_atmega328_pro_8MHz.hex'
p928
sS'path'
p929
S'atmega'
p930
sS'unlock_bits'
p931
S'0xff'
p932
ssS'upload'
p933
(dp934
S'protocol'
p935
S'arduino'
p936
sS'maximum_size'
p937
S'30720'
p938
sS'speed'
p939
S'57600'
p940
ssS'build'
p941
(dp942
S'core'
p943
S'arduino'
p944
sS'mcu'
p945
S'atmega328p'
p946
sS'f_cpu'
p947
S'8000000L'
p948
sS'variant'
p949
S'standard'
p950
ssS'name'
p951
S'Arduino Pro or Pro Mini (3.3V, 8 MHz) w/ ATmega328'
p952
saa(lp953
S'pro'
p954
a(dp955
S'bootloader'
p956
(dp957
S'extended_fuses'
p958
S'0xf8'
p959
sS'high_fuses'
p960
S'0xdd'
p961
sS'low_fuses'
p962
S'0xc6'
p963
sS'lock_bits'
p964
S'0xcf'
p965
sS'file'
p966
S'ATmegaBOOT_168_pro_8MHz.hex'
p967
sS'path'
p968
S'atmega'
p969
sS'unlock_bits'
p970
S'0xff'
p971
ssS'upload'
p972
(dp973
S'protocol'
p974
S'arduino'
p975
sS'maximum_size'
p976
S'14336'
p977
sS'speed'
p978
S'19200'
p979
ssS'build'
p980
(dp981
S'core'
p982
S'arduino'
p983
sS'mcu'
p984
S'atmega168'
p985
sS'f_cpu'
p986
S'8000000L'
p987
sS'variant'
p988
S'standard'
p989
ssS'name'
p990
S'Arduino Pro or Pro Mini (3.3V, 8 MHz) w/ ATmega168'
p991
saa(lp992
S'atmega168'
p993
a(dp994
S'bootloader'
p995
(dp996
S'extended_fuses'
p997
S'0xf8'
p998
sS'high_fuses'
p999
S'0xdd'
p1000
sS'low_fuses'
p1001
S'0xff'
p1002
sS'lock_bits'
p1003
S'0xcf'
p1004
sS'file'
p1005
S'ATmegaBOOT_168_ng.hex'
p1006
sS'path'
p1007
S'atmega'
p1008
sS'unlock_bits'
p1009
S'0xff'
p1010
ssS'upload'
p1011
(dp1012
S'protocol'
p1013
S'arduino'
p1014
sS'maximum_size'
p1015
S'14336'
p1016
sS'speed'
p1017
S'19200'
p1018
ssS'build'
p1019
(dp1020
S'core'
p1021
S'arduino'
p1022
sS'mcu'
p1023
S'atmega168'
p1024
sS'f_cpu'
p1025
S'16000000L'
p1026
sS'variant'
p1027
S'standard'
p1028
ssS'name'
p1029
S'Arduino NG or older w/ ATmega168'
p1030
saa(lp1031
S'atmega8'
p1032
a(dp1033
S'bootloader'
p1034
(dp1035
S'high_fuses'
p1036
S'0xca'
p1037
sS'low_fuses'
p1038
S'0xdf'
p1039
sS'lock_bits'
p1040
S'0xcf'
p1041
sS'file'
p1042
S'ATmegaBOOT-prod-firmware-2009-11-07.hex'
p1043
sS'path'
p1044
S'atmega8'
p1045
sS'unlock_bits'
p1046
S'0xff'
p1047
ssS'upload'
p1048
(dp1049
S'protocol'
p1050
S'arduino'
p1051
sS'maximum_size'
p1052
S'7168'
p1053
sS'speed'
p1054
S'19200'
p1055
ssS'build'
p1056
(dp1057
S'core'
p1058
S'arduino'
p1059
sS'mcu'
p1060
S'atmega8'
p1061
sS'f_cpu'
p1062
S'16000000L'
p1063
sS'variant'
p1064
S'standard'
p1065
ssS'name'
p1066
S'Arduino NG or older w/ ATmega8'
p1067
saa(lp1068
S'robotControl'
p1069
a(dp1070
S'bootloader'
p1071
(dp1072
S'extended_fuses'
p1073
S'0xcb'
p1074
sS'high_fuses'
p1075
S'0xd8'
p1076
sS'low_fuses'
p1077
S'0xff'
p1078
sS'lock_bits'
p1079
S'0xef'
p1080
sS'file'
p1081
S'Caterina-Robot-Control.hex'
p1082
sS'path'
p1083
S'caterina-Arduino_Robot'
p1084
sS'unlock_bits'
p1085
S'0xff'
p1086
ssS'upload'
p1087
(dp1088
S'protocol'
p1089
S'avr109'
p1090
sS'maximum_size'
p1091
S'28672'
p1092
sS'speed'
p1093
S'57600'
p1094
sS'disable_flushing'
p1095
S'true'
p1096
ssS'build'
p1097
(dp1098
S'core'
p1099
S'robot'
p1100
sS'f_cpu'
p1101
S'16000000L'
p1102
sS'vid'
p1103
S'0x2341'
p1104
sS'pid'
p1105
S'0x8038'
p1106
sS'variant'
p1107
S'robot_control'
p1108
sS'mcu'
p1109
S'atmega32u4'
p1110
ssS'name'
p1111
S'Arduino Robot Control'
p1112
saa(lp1113
S'robotMotor'
p1114
a(dp1115
S'bootloader'
p1116
(dp1117
S'extended_fuses'
p1118
S'0xcb'
p1119
sS'high_fuses'
p1120
S'0xd8'
p1121
sS'low_fuses'
p1122
S'0xff'
p1123
sS'lock_bits'
p1124
S'0xef'
p1125
sS'file'
p1126
S'Caterina-Robot-Motor.hex'
p1127
sS'path'
p1128
S'caterina-Arduino_Robot'
p1129
sS'unlock_bits'
p1130
S'0xff'
p1131
ssS'upload'
p1132
(dp1133
S'protocol'
p1134
S'avr109'
p1135
sS'maximum_size'
p1136
S'28672'
p1137
sS'speed'
p1138
S'57600'
p1139
sS'disable_flushing'
p1140
S'true'
p1141
ssS'build'
p1142
(dp1143
S'core'
p1144
S'robot'
p1145
sS'f_cpu'
p1146
S'16000000L'
p1147
sS'vid'
p1148
S'0x2341'
p1149
sS'pid'
p1150
S'0x8039'
p1151
sS'variant'
p1152
S'robot_motor'
p1153
sS'mcu'
p1154
S'atmega32u4'
p1155
ssS'name'
p1156
S'Arduino Robot Motor'
p1157
saatp1158
Rp1159
(dp1160
S'default'
p1161
S'uno'
p1162
sbtp1163
a(S'used_libs'
p1164
(lp1165
S'lib/Adafruit_Trellis'
p1166
aS'/usr/share/arduino/libraries/Wire'
p1167
aS'/usr/share/arduino/hardware/arduino/cores/arduino'
p1168
atp1169
a(S'make'
p1170
S'/usr/share/arduino/hardware/tools/avr/bin/make'
p1171
tp1172
a(S'arduino_libraries_dir'
p1173
S'/usr/share/arduino/libraries'
p1174
tp1175
a(S'cc'
p1176
S'/usr/share/arduino/hardware/tools/avr/bin/avr-gcc'
p1177
tp1178
a(S'cflags'
p1179
g2
(g3
g4
(lp1180
tp1181
Rp1182
tp1183
a(S'cxxflags'
p1184
g2
(g3
g4
(lp1185
S'-fno-exceptions'
p1186
atp1187
Rp1188
tp1189
a(S'arduino_variants_dir'
p1190
S'/usr/share/arduino/hardware/arduino/variants'
p1191
tp1192
a(S'stty'
p1193
S'/bin/stty'
p1194
tp1195
a(S'version.txt'
p1196
S'/usr/share/arduino/lib/version.txt'
p1197
tp1198
a(S'arduino_core_dir'
p1199
g1168
tp1200
a(S'boards.txt'
p1201
S'/usr/share/arduino/hardware/arduino/boards.txt'
p1202
tp1203
a(S'avrdude.conf'
p1204
S'/usr/share/arduino/hardware/tools/avrdude.conf'
p1205
tp1206
a(S'deps'
p1207
g2
(g3
g4
(lp1208
S'.build/uno/src/dependencies.d'
p1209
aS'.build/uno/arduino/dependencies.d'
p1210
aS'.build/uno/Adafruit_Trellis/dependencies.d'
p1211
aS'.build/uno/Wire/dependencies.d'
p1212
atp1213
Rp1214
tp1215
a.